target datalayout = "e-m:e-p270:32:32-p271:32:32-p272:64:64-i64:64-i128:128-f80:128-n8:16:32:64-S128"
target triple = "x86_64-pc-linux-gnu"

%union.SourceSpan = type { i64 }
%struct.Vmem = type { ptr, i64, i64 }
%struct.DynamicScope_ = type { i32, i8, i32, i32, i32, i32, i32, ptr, i32 }
%struct.SemaContext_ = type { ptr, ptr, ptr, %struct.CallEnv, ptr, %union.SourceSpan, i32, i32, ptr, i32, ptr, i32, i32, ptr, ptr, i32, %struct.anon.85, ptr, ptr, ptr, %struct.DynamicScope_, ptr }
%struct.CallEnv = type { i16, ptr, %union.anon.84 }
%union.anon.84 = type { ptr }
%struct.anon.85 = type { i32, ptr, ptr, ptr, ptr, ptr, ptr, ptr, ptr, ptr, i8, ptr }
%struct.Ast_ = type { %union.SourceSpan, i32, i8, %union.anon.62 }
%union.anon.62 = type { %struct.AstDocDirective_ }
%struct.AstDocDirective_ = type { i8, %union.anon.65 }
%union.anon.65 = type { %struct.anon.66 }
%struct.anon.66 = type { ptr, %union.SourceSpan, i8 }
%struct.AstDeferStmt = type { i32, i32, i8 }

@ast_arena = external global %struct.Vmem, align 8

; Function Attrs: nounwind uwtable
define internal i32 @astid(ptr noundef %0) #0 {
  %2 = alloca ptr, align 8
  store ptr %0, ptr %2, align 8
  %3 = load ptr, ptr %2, align 8
  %4 = load ptr, ptr @ast_arena, align 8
  %5 = ptrtoint ptr %3 to i64
  %6 = ptrtoint ptr %4 to i64
  %7 = sub i64 %5, %6
  %8 = sdiv exact i64 %7, 48
  %9 = trunc i64 %8 to i32
  ret i32 %9
}

; Function Attrs: nounwind uwtable
define internal ptr @astptr(i32 noundef %0) #0 {
  %2 = alloca i32, align 4
  store i32 %0, ptr %2, align 4
  %3 = load ptr, ptr @ast_arena, align 8
  %4 = load i32, ptr %2, align 4
  %5 = zext i32 %4 to i64
  %6 = getelementptr inbounds %struct.Ast_, ptr %3, i64 %5
  ret ptr %6
}

; Function Attrs: nounwind uwtable
define dso_local void @context_pop_defers(ptr noundef %0, ptr noundef %1) #0 {
  %3 = alloca ptr, align 8
  %4 = alloca ptr, align 8
  %5 = alloca i32, align 4
  %6 = alloca i32, align 4
  %7 = alloca ptr, align 8
  %8 = alloca ptr, align 8
  store ptr %0, ptr %3, align 8
  store ptr %1, ptr %4, align 8
  %9 = load ptr, ptr %3, align 8
  %10 = getelementptr inbounds %struct.SemaContext_, ptr %9, i32 0, i32 20
  %11 = getelementptr inbounds %struct.DynamicScope_, ptr %10, i32 0, i32 6
  %12 = load i32, ptr %11, align 8
  store i32 %12, ptr %5, align 4
  %13 = load ptr, ptr %4, align 8
  %14 = icmp ne ptr %13, null
  br i1 %14, label %15, label %60

15:                                               ; preds = %2
  %16 = load ptr, ptr %3, align 8
  %17 = getelementptr inbounds %struct.SemaContext_, ptr %16, i32 0, i32 20
  %18 = getelementptr inbounds %struct.DynamicScope_, ptr %17, i32 0, i32 1
  %19 = load i8, ptr %18, align 4
  %20 = lshr i8 %19, 1
  %21 = and i8 %20, 1
  %22 = trunc i8 %21 to i1
  br i1 %22, label %60, label %23

23:                                               ; preds = %15
  %24 = load ptr, ptr %3, align 8
  %25 = getelementptr inbounds %struct.SemaContext_, ptr %24, i32 0, i32 20
  %26 = getelementptr inbounds %struct.DynamicScope_, ptr %25, i32 0, i32 5
  %27 = load i32, ptr %26, align 4
  store i32 %27, ptr %6, align 4
  br label %28

28:                                               ; preds = %54, %23
  %29 = load i32, ptr %6, align 4
  %30 = load i32, ptr %5, align 4
  %31 = icmp ne i32 %29, %30
  br i1 %31, label %32, label %59

32:                                               ; preds = %28
  %33 = load i32, ptr %6, align 4
  %34 = call ptr @astptr(i32 noundef %33)
  store ptr %34, ptr %7, align 8
  %35 = load ptr, ptr %7, align 8
  %36 = getelementptr inbounds %struct.Ast_, ptr %35, i32 0, i32 3
  %37 = getelementptr inbounds %struct.AstDeferStmt, ptr %36, i32 0, i32 2
  %38 = load i8, ptr %37, align 8
  %39 = lshr i8 %38, 1
  %40 = and i8 %39, 1
  %41 = trunc i8 %40 to i1
  br i1 %41, label %54, label %42

42:                                               ; preds = %32
  %43 = load ptr, ptr %7, align 8
  %44 = getelementptr inbounds %struct.Ast_, ptr %43, i32 0, i32 3
  %45 = getelementptr inbounds %struct.AstDeferStmt, ptr %44, i32 0, i32 1
  %46 = load i32, ptr %45, align 4
  %47 = call ptr @astptr(i32 noundef %46)
  %48 = call ptr @copy_ast_defer(ptr noundef %47)
  store ptr %48, ptr %8, align 8
  %49 = load ptr, ptr %8, align 8
  %50 = call i32 @astid(ptr noundef %49)
  %51 = load ptr, ptr %4, align 8
  store i32 %50, ptr %51, align 4
  %52 = load ptr, ptr %8, align 8
  %53 = getelementptr inbounds %struct.Ast_, ptr %52, i32 0, i32 1
  store ptr %53, ptr %4, align 8
  br label %54

54:                                               ; preds = %42, %32
  %55 = load ptr, ptr %7, align 8
  %56 = getelementptr inbounds %struct.Ast_, ptr %55, i32 0, i32 3
  %57 = getelementptr inbounds %struct.AstDeferStmt, ptr %56, i32 0, i32 0
  %58 = load i32, ptr %57, align 8
  store i32 %58, ptr %6, align 4
  br label %28, !llvm.loop !9

59:                                               ; preds = %28
  br label %60

60:                                               ; preds = %59, %15, %2
  %61 = load i32, ptr %5, align 4
  %62 = load ptr, ptr %3, align 8
  %63 = getelementptr inbounds %struct.SemaContext_, ptr %62, i32 0, i32 20
  %64 = getelementptr inbounds %struct.DynamicScope_, ptr %63, i32 0, i32 5
  store i32 %61, ptr %64, align 4
  ret void
}