; Function Attrs: nounwind uwtable
define dso_local void @context_pop_defers(ptr nocapture noundef %0, ptr noundef writeonly %1) local_unnamed_addr #0 {
  %3 = getelementptr inbounds i8, ptr %0, i64 272
  %4 = load i32, ptr %3, align 8
  %.not = icmp eq ptr %1, null
  br i1 %.not, label %.loopexit, label %5

5:                                                ; preds = %2
  %6 = getelementptr inbounds i8, ptr %0, i64 252
  %7 = load i8, ptr %6, align 4
  %8 = and i8 %7, 2
  %.not16 = icmp eq i8 %8, 0
  br i1 %.not16, label %9, label %.loopexit

9:                                                ; preds = %5
  %10 = getelementptr inbounds i8, ptr %0, i64 268
  %.01419 = load i32, ptr %10, align 4
  %.not1720 = icmp eq i32 %.01419, %4
  br i1 %.not1720, label %.loopexit, label %.lr.ph.preheader

.lr.ph.preheader:                                 ; preds = %9
  %.pre23 = load ptr, ptr @ast_arena, align 8
  br label %.lr.ph

.lr.ph:                                           ; preds = %.lr.ph.preheader, %31
  %11 = phi ptr [ %32, %31 ], [ %.pre23, %.lr.ph.preheader ]
  %.01422 = phi i32 [ %.014, %31 ], [ %.01419, %.lr.ph.preheader ]
  %.021 = phi ptr [ %.1, %31 ], [ %1, %.lr.ph.preheader ]
  %12 = zext i32 %.01422 to i64
  %13 = getelementptr inbounds %struct.Ast_, ptr %11, i64 %12
  %14 = getelementptr inbounds i8, ptr %13, i64 16
  %15 = getelementptr inbounds i8, ptr %13, i64 24
  %16 = load i8, ptr %15, align 8
  %17 = and i8 %16, 2
  %.not18 = icmp eq i8 %17, 0
  br i1 %.not18, label %18, label %31

18:                                               ; preds = %.lr.ph
  %19 = getelementptr inbounds i8, ptr %13, i64 20
  %20 = load i32, ptr %19, align 4
  %21 = zext i32 %20 to i64
  %22 = getelementptr inbounds %struct.Ast_, ptr %11, i64 %21
  %23 = tail call ptr @copy_ast_defer(ptr noundef %22) #10
  %24 = load ptr, ptr @ast_arena, align 8
  %25 = ptrtoint ptr %23 to i64
  %26 = ptrtoint ptr %24 to i64
  %27 = sub i64 %25, %26
  %28 = sdiv exact i64 %27, 48
  %29 = trunc i64 %28 to i32
  store i32 %29, ptr %.021, align 4
  %30 = getelementptr inbounds i8, ptr %23, i64 8
  %.pre = load ptr, ptr @ast_arena, align 8
  br label %31

31:                                               ; preds = %18, %.lr.ph
  %32 = phi ptr [ %11, %.lr.ph ], [ %.pre, %18 ]
  %.1 = phi ptr [ %.021, %.lr.ph ], [ %30, %18 ]
  %.014 = load i32, ptr %14, align 4
  %.not17 = icmp eq i32 %.014, %4
  br i1 %.not17, label %.loopexit, label %.lr.ph, !llvm.loop !9

.loopexit:                                        ; preds = %31, %9, %5, %2
  %33 = getelementptr inbounds i8, ptr %0, i64 268
  store i32 %4, ptr %33, align 4
  ret void
}